target datalayout = "e-m:e-p270:32:32-p271:32:32-p272:64:64-i64:64-i128:128-f80:128-n8:16:32:64-S128"
target triple = "x86_64-pc-linux-gnu"

%"class.std::__cxx11::basic_string" = type { %"struct.std::__cxx11::basic_string<char>::_Alloc_hider", i64, %union.anon }
%"struct.std::__cxx11::basic_string<char>::_Alloc_hider" = type { ptr }
%union.anon = type { i64, [8 x i8] }
%"struct.casadi::PluginInterface<casadi::XmlFileInternal>::Plugin" = type { ptr, ptr, ptr, i32, %"struct.casadi::XmlFileInternal::Exposed", ptr, ptr }
%"struct.casadi::XmlFileInternal::Exposed" = type { i8 }

@.str = private unnamed_addr constant [8 x i8] c"tinyxml\00", align 1
@_ZN6casadi16TinyXmlInterface8meta_docB5cxx11E = external global %"class.std::__cxx11::basic_string", align 8

; Function Attrs: mustprogress nounwind uwtable
define i32 @casadi_register_xmlfile_tinyxml(ptr noundef %0) #4 {
  %2 = alloca ptr, align 8
  store ptr %0, ptr %2, align 8
  %3 = load ptr, ptr %2, align 8
  %4 = getelementptr inbounds %"struct.casadi::PluginInterface<casadi::XmlFileInternal>::Plugin", ptr %3, i32 0, i32 0
  store ptr @_ZN6casadi16TinyXmlInterface7creatorEv, ptr %4, align 8
  %5 = load ptr, ptr %2, align 8
  %6 = getelementptr inbounds %"struct.casadi::PluginInterface<casadi::XmlFileInternal>::Plugin", ptr %5, i32 0, i32 1
  store ptr @.str, ptr %6, align 8
  %7 = call noundef ptr @_ZNKSt7__cxx1112basic_stringIcSt11char_traitsIcESaIcEE5c_strEv(ptr noundef nonnull align 8 dereferenceable(32) @_ZN6casadi16TinyXmlInterface8meta_docB5cxx11E) #3
  %8 = load ptr, ptr %2, align 8
  %9 = getelementptr inbounds %"struct.casadi::PluginInterface<casadi::XmlFileInternal>::Plugin", ptr %8, i32 0, i32 2
  store ptr %7, ptr %9, align 8
  %10 = load ptr, ptr %2, align 8
  %11 = getelementptr inbounds %"struct.casadi::PluginInterface<casadi::XmlFileInternal>::Plugin", ptr %10, i32 0, i32 3
  store i32 31, ptr %11, align 8
  ret i32 0
}