; Function Attrs: mustprogress nounwind uwtable
define noundef i32 @casadi_register_xmlfile_tinyxml(ptr nocapture noundef writeonly %0) #3 {
  store ptr @_ZN6casadi16TinyXmlInterface7creatorEv, ptr %0, align 8
  %2 = getelementptr inbounds i8, ptr %0, i64 8
  store ptr @.str, ptr %2, align 8
  %3 = tail call noundef ptr @_ZNKSt7__cxx1112basic_stringIcSt11char_traitsIcESaIcEE5c_strEv(ptr noundef nonnull align 8 dereferenceable(32) @_ZN6casadi16TinyXmlInterface8meta_docB5cxx11E) #17
  %4 = getelementptr inbounds i8, ptr %0, i64 16
  store ptr %3, ptr %4, align 8
  %5 = getelementptr inbounds i8, ptr %0, i64 24
  store i32 31, ptr %5, align 8
  ret i32 0
}